target datalayout = "e-m:e-p270:32:32-p271:32:32-p272:64:64-i64:64-i128:128-f80:128-n8:16:32:64-S128"
target triple = "x86_64-pc-linux-gnu"

%struct.keccak_st = type { [5 x [5 x i64]], [168 x i8], i64, i64, i64, i8, %struct.prov_sha3_meth_st, i32 }
%struct.prov_sha3_meth_st = type { ptr, ptr, ptr }

; Function Attrs: nounwind uwtable
define i32 @ossl_sha3_update(ptr noundef %0, ptr noundef %1, i64 noundef %2) #0 {
  %4 = alloca i32, align 4
  %5 = alloca ptr, align 8
  %6 = alloca ptr, align 8
  %7 = alloca i64, align 8
  %8 = alloca ptr, align 8
  %9 = alloca i64, align 8
  %10 = alloca i64, align 8
  %11 = alloca i64, align 8
  %12 = alloca i32, align 4
  store ptr %0, ptr %5, align 8, !tbaa !3
  store ptr %1, ptr %6, align 8, !tbaa !20
  store i64 %2, ptr %7, align 8, !tbaa !15
  call void @llvm.lifetime.start.p0(i64 8, ptr %8) #5
  %13 = load ptr, ptr %6, align 8, !tbaa !20
  store ptr %13, ptr %8, align 8, !tbaa !21
  call void @llvm.lifetime.start.p0(i64 8, ptr %9) #5
  %14 = load ptr, ptr %5, align 8, !tbaa !3
  %15 = getelementptr inbounds nuw %struct.keccak_st, ptr %14, i32 0, i32 2
  %16 = load i64, ptr %15, align 8, !tbaa !16
  store i64 %16, ptr %9, align 8, !tbaa !15
  call void @llvm.lifetime.start.p0(i64 8, ptr %10) #5
  call void @llvm.lifetime.start.p0(i64 8, ptr %11) #5
  %17 = load i64, ptr %7, align 8, !tbaa !15
  %18 = icmp eq i64 %17, 0
  br i1 %18, label %19, label %20

19:                                               ; preds = %3
  store i32 1, ptr %4, align 4
  store i32 1, ptr %12, align 4
  br label %113

20:                                               ; preds = %3
  %21 = load ptr, ptr %5, align 8, !tbaa !3
  %22 = getelementptr inbounds nuw %struct.keccak_st, ptr %21, i32 0, i32 7
  %23 = load i32, ptr %22, align 8, !tbaa !13
  %24 = icmp eq i32 %23, 3
  br i1 %24, label %30, label %25

25:                                               ; preds = %20
  %26 = load ptr, ptr %5, align 8, !tbaa !3
  %27 = getelementptr inbounds nuw %struct.keccak_st, ptr %26, i32 0, i32 7
  %28 = load i32, ptr %27, align 8, !tbaa !13
  %29 = icmp eq i32 %28, 2
  br i1 %29, label %30, label %31

30:                                               ; preds = %25, %20
  store i32 0, ptr %4, align 4
  store i32 1, ptr %12, align 4
  br label %113

31:                                               ; preds = %25
  %32 = load ptr, ptr %5, align 8, !tbaa !3
  %33 = getelementptr inbounds nuw %struct.keccak_st, ptr %32, i32 0, i32 4
  %34 = load i64, ptr %33, align 8, !tbaa !8
  store i64 %34, ptr %10, align 8, !tbaa !15
  %35 = icmp ne i64 %34, 0
  br i1 %35, label %36, label %81

36:                                               ; preds = %31
  %37 = load i64, ptr %9, align 8, !tbaa !15
  %38 = load i64, ptr %10, align 8, !tbaa !15
  %39 = sub i64 %37, %38
  store i64 %39, ptr %11, align 8, !tbaa !15
  %40 = load i64, ptr %7, align 8, !tbaa !15
  %41 = load i64, ptr %11, align 8, !tbaa !15
  %42 = icmp ult i64 %40, %41
  br i1 %42, label %43, label %56

43:                                               ; preds = %36
  %44 = load ptr, ptr %5, align 8, !tbaa !3
  %45 = getelementptr inbounds nuw %struct.keccak_st, ptr %44, i32 0, i32 1
  %46 = getelementptr inbounds [168 x i8], ptr %45, i64 0, i64 0
  %47 = load i64, ptr %10, align 8, !tbaa !15
  %48 = getelementptr inbounds nuw i8, ptr %46, i64 %47
  %49 = load ptr, ptr %8, align 8, !tbaa !21
  %50 = load i64, ptr %7, align 8, !tbaa !15
  call void @llvm.memcpy.p0.p0.i64(ptr align 1 %48, ptr align 1 %49, i64 %50, i1 false)
  %51 = load i64, ptr %7, align 8, !tbaa !15
  %52 = load ptr, ptr %5, align 8, !tbaa !3
  %53 = getelementptr inbounds nuw %struct.keccak_st, ptr %52, i32 0, i32 4
  %54 = load i64, ptr %53, align 8, !tbaa !8
  %55 = add i64 %54, %51
  store i64 %55, ptr %53, align 8, !tbaa !8
  store i32 1, ptr %4, align 4
  store i32 1, ptr %12, align 4
  br label %113

56:                                               ; preds = %36
  %57 = load ptr, ptr %5, align 8, !tbaa !3
  %58 = getelementptr inbounds nuw %struct.keccak_st, ptr %57, i32 0, i32 1
  %59 = getelementptr inbounds [168 x i8], ptr %58, i64 0, i64 0
  %60 = load i64, ptr %10, align 8, !tbaa !15
  %61 = getelementptr inbounds nuw i8, ptr %59, i64 %60
  %62 = load ptr, ptr %8, align 8, !tbaa !21
  %63 = load i64, ptr %11, align 8, !tbaa !15
  call void @llvm.memcpy.p0.p0.i64(ptr align 1 %61, ptr align 1 %62, i64 %63, i1 false)
  %64 = load i64, ptr %11, align 8, !tbaa !15
  %65 = load ptr, ptr %8, align 8, !tbaa !21
  %66 = getelementptr inbounds nuw i8, ptr %65, i64 %64
  store ptr %66, ptr %8, align 8, !tbaa !21
  %67 = load i64, ptr %11, align 8, !tbaa !15
  %68 = load i64, ptr %7, align 8, !tbaa !15
  %69 = sub i64 %68, %67
  store i64 %69, ptr %7, align 8, !tbaa !15
  %70 = load ptr, ptr %5, align 8, !tbaa !3
  %71 = getelementptr inbounds nuw %struct.keccak_st, ptr %70, i32 0, i32 0
  %72 = getelementptr inbounds [5 x [5 x i64]], ptr %71, i64 0, i64 0
  %73 = load ptr, ptr %5, align 8, !tbaa !3
  %74 = getelementptr inbounds nuw %struct.keccak_st, ptr %73, i32 0, i32 1
  %75 = getelementptr inbounds [168 x i8], ptr %74, i64 0, i64 0
  %76 = load i64, ptr %9, align 8, !tbaa !15
  %77 = load i64, ptr %9, align 8, !tbaa !15
  %78 = call i64 @SHA3_absorb(ptr noundef %72, ptr noundef %75, i64 noundef %76, i64 noundef %77)
  %79 = load ptr, ptr %5, align 8, !tbaa !3
  %80 = getelementptr inbounds nuw %struct.keccak_st, ptr %79, i32 0, i32 4
  store i64 0, ptr %80, align 8, !tbaa !8
  br label %81

81:                                               ; preds = %56, %31
  %82 = load i64, ptr %7, align 8, !tbaa !15
  %83 = load i64, ptr %9, align 8, !tbaa !15
  %84 = icmp uge i64 %82, %83
  br i1 %84, label %85, label %93

85:                                               ; preds = %81
  %86 = load ptr, ptr %5, align 8, !tbaa !3
  %87 = getelementptr inbounds nuw %struct.keccak_st, ptr %86, i32 0, i32 0
  %88 = getelementptr inbounds [5 x [5 x i64]], ptr %87, i64 0, i64 0
  %89 = load ptr, ptr %8, align 8, !tbaa !21
  %90 = load i64, ptr %7, align 8, !tbaa !15
  %91 = load i64, ptr %9, align 8, !tbaa !15
  %92 = call i64 @SHA3_absorb(ptr noundef %88, ptr noundef %89, i64 noundef %90, i64 noundef %91)
  store i64 %92, ptr %11, align 8, !tbaa !15
  br label %95

93:                                               ; preds = %81
  %94 = load i64, ptr %7, align 8, !tbaa !15
  store i64 %94, ptr %11, align 8, !tbaa !15
  br label %95

95:                                               ; preds = %93, %85
  %96 = load i64, ptr %11, align 8, !tbaa !15
  %97 = icmp ne i64 %96, 0
  br i1 %97, label %98, label %112

98:                                               ; preds = %95
  %99 = load ptr, ptr %5, align 8, !tbaa !3
  %100 = getelementptr inbounds nuw %struct.keccak_st, ptr %99, i32 0, i32 1
  %101 = getelementptr inbounds [168 x i8], ptr %100, i64 0, i64 0
  %102 = load ptr, ptr %8, align 8, !tbaa !21
  %103 = load i64, ptr %7, align 8, !tbaa !15
  %104 = getelementptr inbounds nuw i8, ptr %102, i64 %103
  %105 = load i64, ptr %11, align 8, !tbaa !15
  %106 = sub i64 0, %105
  %107 = getelementptr inbounds i8, ptr %104, i64 %106
  %108 = load i64, ptr %11, align 8, !tbaa !15
  call void @llvm.memcpy.p0.p0.i64(ptr align 8 %101, ptr align 1 %107, i64 %108, i1 false)
  %109 = load i64, ptr %11, align 8, !tbaa !15
  %110 = load ptr, ptr %5, align 8, !tbaa !3
  %111 = getelementptr inbounds nuw %struct.keccak_st, ptr %110, i32 0, i32 4
  store i64 %109, ptr %111, align 8, !tbaa !8
  br label %112

112:                                              ; preds = %98, %95
  store i32 1, ptr %4, align 4
  store i32 1, ptr %12, align 4
  br label %113

113:                                              ; preds = %112, %43, %30, %19
  call void @llvm.lifetime.end.p0(i64 8, ptr %11) #5
  call void @llvm.lifetime.end.p0(i64 8, ptr %10) #5
  call void @llvm.lifetime.end.p0(i64 8, ptr %9) #5
  call void @llvm.lifetime.end.p0(i64 8, ptr %8) #5
  %114 = load i32, ptr %4, align 4
  ret i32 %114
}