; Function Attrs: nounwind uwtable
define range(i32 0, 2) i32 @ossl_sha3_update(ptr noundef %0, ptr noundef %1, i64 noundef %2) local_unnamed_addr #2 {
  %4 = getelementptr inbounds nuw i8, ptr %0, i64 368
  %5 = load i64, ptr %4, align 8, !tbaa !12
  %6 = icmp eq i64 %2, 0
  br i1 %6, label %35, label %7

7:                                                ; preds = %3
  %8 = getelementptr inbounds nuw i8, ptr %0, i64 424
  %9 = load i32, ptr %8, align 8, !tbaa !11
  %10 = and i32 %9, -2
  %switch = icmp eq i32 %10, 2
  br i1 %switch, label %35, label %11

11:                                               ; preds = %7
  %12 = getelementptr inbounds nuw i8, ptr %0, i64 384
  %13 = load i64, ptr %12, align 8, !tbaa !3
  %.not = icmp eq i64 %13, 0
  br i1 %.not, label %26, label %14

14:                                               ; preds = %11
  %15 = sub i64 %5, %13
  %16 = icmp ult i64 %2, %15
  %17 = getelementptr inbounds nuw i8, ptr %0, i64 200
  %18 = getelementptr inbounds nuw i8, ptr %17, i64 %13
  br i1 %16, label %19, label %22

19:                                               ; preds = %14
  tail call void @llvm.memcpy.p0.p0.i64(ptr nonnull align 1 %18, ptr align 1 %1, i64 %2, i1 false)
  %20 = load i64, ptr %12, align 8, !tbaa !3
  %21 = add i64 %20, %2
  br label %.sink.split

22:                                               ; preds = %14
  tail call void @llvm.memcpy.p0.p0.i64(ptr nonnull align 1 %18, ptr align 1 %1, i64 %15, i1 false)
  %23 = getelementptr inbounds nuw i8, ptr %1, i64 %15
  %24 = sub nuw i64 %2, %15
  %25 = tail call i64 @SHA3_absorb(ptr noundef nonnull %0, ptr noundef nonnull %17, i64 noundef %5, i64 noundef %5) #6
  store i64 0, ptr %12, align 8, !tbaa !3
  br label %26

26:                                               ; preds = %22, %11
  %.046 = phi ptr [ %23, %22 ], [ %1, %11 ]
  %.045 = phi i64 [ %24, %22 ], [ %2, %11 ]
  %.not52 = icmp ult i64 %.045, %5
  br i1 %.not52, label %29, label %27

27:                                               ; preds = %26
  %28 = tail call i64 @SHA3_absorb(ptr noundef nonnull %0, ptr noundef %.046, i64 noundef %.045, i64 noundef %5) #6
  br label %29

29:                                               ; preds = %26, %27
  %.0 = phi i64 [ %28, %27 ], [ %.045, %26 ]
  %.not53 = icmp eq i64 %.0, 0
  br i1 %.not53, label %35, label %30

30:                                               ; preds = %29
  %31 = getelementptr inbounds nuw i8, ptr %0, i64 200
  %32 = getelementptr inbounds nuw i8, ptr %.046, i64 %.045
  %33 = sub i64 0, %.0
  %34 = getelementptr inbounds i8, ptr %32, i64 %33
  tail call void @llvm.memcpy.p0.p0.i64(ptr nonnull align 8 %31, ptr nonnull align 1 %34, i64 %.0, i1 false)
  br label %.sink.split

.sink.split:                                      ; preds = %19, %30
  %.0.sink = phi i64 [ %.0, %30 ], [ %21, %19 ]
  store i64 %.0.sink, ptr %12, align 8, !tbaa !3
  br label %35

35:                                               ; preds = %.sink.split, %7, %29, %3
  %.044 = phi i32 [ 1, %3 ], [ 0, %7 ], [ 1, %29 ], [ 1, %.sink.split ]
  ret i32 %.044
}